target datalayout = "e-m:e-p270:32:32-p271:32:32-p272:64:64-i64:64-i128:128-f80:128-n8:16:32:64-S128"
target triple = "x86_64-pc-linux-gnu"

%struct.CVodeMemRec = type { ptr, double, ptr, ptr, i32, i32, double, double, ptr, i32, i32, ptr, ptr, i32, i32, ptr, i32, i32, double, double, ptr, i32, i32, i32, i32, ptr, ptr, ptr, i32, i32, ptr, ptr, ptr, i32, double, i32, i32, double, ptr, ptr, ptr, i32, ptr, ptr, i32, i32, i32, double, ptr, ptr, ptr, [13 x ptr], ptr, ptr, ptr, ptr, ptr, ptr, ptr, ptr, ptr, [13 x ptr], ptr, ptr, ptr, ptr, [13 x ptr], ptr, ptr, ptr, ptr, ptr, i32, [13 x ptr], ptr, ptr, ptr, ptr, ptr, i32, i32, double, i32, i32, i32, i32, i32, double, double, double, double, double, double, double, double, [14 x double], [6 x double], [13 x double], double, double, double, double, double, double, double, double, i32, double, double, i32, double, double, ptr, i32, i64, i32, i32, i32, double, double, double, double, double, double, double, double, double, double, double, double, i64, i32, i64, i64, i64, i64, i64, i64, i64, i64, i64, ptr, i64, i64, ptr, i64, i64, ptr, i64, i64, i64, i64, i64, i64, i32, double, double, double, i64, i64, i64, i64, i64, i64, ptr, i32, ptr, i32, ptr, i32, ptr, i32, i32, i64, i32, ptr, i32, ptr, ptr, ptr, ptr, ptr, ptr, i32, i32, ptr, ptr, ptr, ptr, ptr, i64, double, i32, i32, i64, double, double, double, i32, i32, double, i32, i32, i32, i32, i32, i32, i32, i32, i32, i32, i32, i32, i32, i32, i32, i32, ptr, i64, i32, [6 x [4 x double]], i32, i64, ptr, i32, ptr, ptr, double, double, double, ptr, ptr, ptr, double, double, i32, i32, i64, ptr, i32, ptr, i32, i32, [13 x double], ptr, ptr, ptr, i32, ptr, i32 }

@.str = private unnamed_addr constant [119 x i8] c"generated/home/dtcxzyw/WorkSpace/Projects/compilers/llvm-opt-benchmark/bench/sundials/sundials/src/cvodes/cvodes_nls.c\00", align 1
@.str.1 = private unnamed_addr constant [26 x i8] c"cvode_mem = NULL illegal.\00", align 1
@__func__.CVodeGetNonlinearSystemData = private unnamed_addr constant [28 x i8] c"CVodeGetNonlinearSystemData\00", align 1

; Function Attrs: nounwind uwtable
define i32 @CVodeGetNonlinearSystemData(ptr noundef %0, ptr noundef %1, ptr noundef %2, ptr noundef %3, ptr noundef %4, ptr noundef %5, ptr noundef %6, ptr noundef %7, ptr noundef %8) #0 {
  %10 = alloca i32, align 4
  %11 = alloca ptr, align 8
  %12 = alloca ptr, align 8
  %13 = alloca ptr, align 8
  %14 = alloca ptr, align 8
  %15 = alloca ptr, align 8
  %16 = alloca ptr, align 8
  %17 = alloca ptr, align 8
  %18 = alloca ptr, align 8
  %19 = alloca ptr, align 8
  %20 = alloca ptr, align 8
  %21 = alloca i32, align 4
  store ptr %0, ptr %11, align 8, !tbaa !3
  store ptr %1, ptr %12, align 8, !tbaa !49
  store ptr %2, ptr %13, align 8, !tbaa !50
  store ptr %3, ptr %14, align 8, !tbaa !50
  store ptr %4, ptr %15, align 8, !tbaa !50
  store ptr %5, ptr %16, align 8, !tbaa !49
  store ptr %6, ptr %17, align 8, !tbaa !49
  store ptr %7, ptr %18, align 8, !tbaa !50
  store ptr %8, ptr %19, align 8, !tbaa !3
  call void @llvm.lifetime.start.p0(i64 8, ptr %20) #3
  %22 = load ptr, ptr %11, align 8, !tbaa !3
  %23 = icmp eq ptr %22, null
  br i1 %23, label %24, label %25

24:                                               ; preds = %9
  call void (ptr, i32, i32, ptr, ptr, ptr, ...) @cvProcessError(ptr noundef null, i32 noundef -21, i32 noundef 177, ptr noundef @__func__.CVodeGetNonlinearSystemData, ptr noundef @.str, ptr noundef @.str.1)
  store i32 -21, ptr %10, align 4
  store i32 1, ptr %21, align 4
  br label %61

25:                                               ; preds = %9
  %26 = load ptr, ptr %11, align 8, !tbaa !3
  store ptr %26, ptr %20, align 8, !tbaa !9
  %27 = load ptr, ptr %20, align 8, !tbaa !9
  %28 = getelementptr inbounds nuw %struct.CVodeMemRec, ptr %27, i32 0, i32 93
  %29 = load double, ptr %28, align 8, !tbaa !38
  %30 = load ptr, ptr %12, align 8, !tbaa !49
  store double %29, ptr %30, align 8, !tbaa !45
  %31 = load ptr, ptr %20, align 8, !tbaa !9
  %32 = getelementptr inbounds nuw %struct.CVodeMemRec, ptr %31, i32 0, i32 51
  %33 = getelementptr inbounds [13 x ptr], ptr %32, i64 0, i64 0
  %34 = load ptr, ptr %33, align 8, !tbaa !36
  %35 = load ptr, ptr %13, align 8, !tbaa !50
  store ptr %34, ptr %35, align 8, !tbaa !36
  %36 = load ptr, ptr %20, align 8, !tbaa !9
  %37 = getelementptr inbounds nuw %struct.CVodeMemRec, ptr %36, i32 0, i32 53
  %38 = load ptr, ptr %37, align 8, !tbaa !37
  %39 = load ptr, ptr %14, align 8, !tbaa !50
  store ptr %38, ptr %39, align 8, !tbaa !36
  %40 = load ptr, ptr %20, align 8, !tbaa !9
  %41 = getelementptr inbounds nuw %struct.CVodeMemRec, ptr %40, i32 0, i32 56
  %42 = load ptr, ptr %41, align 8, !tbaa !39
  %43 = load ptr, ptr %15, align 8, !tbaa !50
  store ptr %42, ptr %43, align 8, !tbaa !36
  %44 = load ptr, ptr %20, align 8, !tbaa !9
  %45 = getelementptr inbounds nuw %struct.CVodeMemRec, ptr %44, i32 0, i32 99
  %46 = load double, ptr %45, align 8, !tbaa !43
  %47 = load ptr, ptr %16, align 8, !tbaa !49
  store double %46, ptr %47, align 8, !tbaa !45
  %48 = load ptr, ptr %20, align 8, !tbaa !9
  %49 = getelementptr inbounds nuw %struct.CVodeMemRec, ptr %48, i32 0, i32 98
  %50 = load double, ptr %49, align 8, !tbaa !42
  %51 = load ptr, ptr %17, align 8, !tbaa !49
  store double %50, ptr %51, align 8, !tbaa !45
  %52 = load ptr, ptr %20, align 8, !tbaa !9
  %53 = getelementptr inbounds nuw %struct.CVodeMemRec, ptr %52, i32 0, i32 51
  %54 = getelementptr inbounds [13 x ptr], ptr %53, i64 0, i64 1
  %55 = load ptr, ptr %54, align 8, !tbaa !36
  %56 = load ptr, ptr %18, align 8, !tbaa !50
  store ptr %55, ptr %56, align 8, !tbaa !36
  %57 = load ptr, ptr %20, align 8, !tbaa !9
  %58 = getelementptr inbounds nuw %struct.CVodeMemRec, ptr %57, i32 0, i32 3
  %59 = load ptr, ptr %58, align 8, !tbaa !40
  %60 = load ptr, ptr %19, align 8, !tbaa !3
  store ptr %59, ptr %60, align 8, !tbaa !3
  store i32 0, ptr %10, align 4
  store i32 1, ptr %21, align 4
  br label %61

61:                                               ; preds = %25, %24
  call void @llvm.lifetime.end.p0(i64 8, ptr %20) #3
  %62 = load i32, ptr %10, align 4
  ret i32 %62
}